; Function Attrs: mustprogress uwtable
define hidden void @_ZN3sat12local_search6reinitERNS_6solverERK7svectorIbjE(ptr noundef nonnull align 8 dereferenceable(232) initializes((92, 93)) %0, ptr noundef nonnull align 8 dereferenceable(4264) %1, ptr noundef nonnull readonly align 8 captures(none) dereferenceable(8) %2) unnamed_addr #3 align 2 {
  tail call void @_ZN3sat12local_search6importERKNS_6solverEb(ptr noundef nonnull align 8 dereferenceable(232) %0, ptr noundef nonnull align 8 dereferenceable(4264) %1, i1 noundef zeroext true)
  %4 = load ptr, ptr %2, align 8, !tbaa !96
  %5 = icmp eq ptr %4, null
  br i1 %5, label %._crit_edge, label %_ZNK6vectorIbLb0EjE4sizeEv.exit

_ZNK6vectorIbLb0EjE4sizeEv.exit:                  ; preds = %3
  %6 = getelementptr inbounds i8, ptr %4, i64 -4
  %7 = load i32, ptr %6, align 4, !tbaa !13
  %.not6 = icmp eq i32 %7, 0
  br i1 %.not6, label %._crit_edge, label %.lr.ph

.lr.ph:                                           ; preds = %_ZNK6vectorIbLb0EjE4sizeEv.exit
  %8 = getelementptr inbounds nuw i8, ptr %0, i64 40
  %9 = load ptr, ptr %8, align 8, !tbaa !49
  %10 = zext i32 %7 to i64
  br label %11

._crit_edge:                                      ; preds = %_ZN3sat12local_search9set_phaseEjb.exit, %3, %_ZNK6vectorIbLb0EjE4sizeEv.exit
  ret void

11:                                               ; preds = %.lr.ph, %_ZN3sat12local_search9set_phaseEjb.exit
  %indvars.iv = phi i64 [ %10, %.lr.ph ], [ %12, %_ZN3sat12local_search9set_phaseEjb.exit ]
  %12 = add nsw i64 %indvars.iv, -1
  %13 = getelementptr inbounds nuw i8, ptr %4, i64 %12
  %14 = load i8, ptr %13, align 1, !tbaa !3, !range !7, !noundef !8
  %15 = trunc nuw i8 %14 to i1
  %16 = getelementptr inbounds nuw %"struct.sat::local_search::var_info", ptr %9, i64 %12, i32 1
  %17 = load i32, ptr %16, align 4, !tbaa !13
  br i1 %15, label %18, label %.critedge.i

18:                                               ; preds = %11
  %19 = icmp ult i32 %17, 100
  br i1 %19, label %.sink.split.i, label %_ZN3sat12local_search9set_phaseEjb.exit

.critedge.i:                                      ; preds = %11
  %.not.i = icmp eq i32 %17, 0
  br i1 %.not.i, label %_ZN3sat12local_search9set_phaseEjb.exit, label %.sink.split.i

.sink.split.i:                                    ; preds = %.critedge.i, %18
  %.sink8.i = phi i32 [ 1, %18 ], [ -1, %.critedge.i ]
  %20 = add i32 %.sink8.i, %17
  store i32 %20, ptr %16, align 4, !tbaa !13
  br label %_ZN3sat12local_search9set_phaseEjb.exit

_ZN3sat12local_search9set_phaseEjb.exit:          ; preds = %18, %.critedge.i, %.sink.split.i
  %.not.wide = icmp eq i64 %12, 0
  br i1 %.not.wide, label %._crit_edge, label %11, !llvm.loop !116
}